(dp0
S'05/09/2016'
p1
I0
sS'03/30/2016'
p2
I0
sS'04/17/2016'
p3
I0
sS'04/19/2016'
p4
I0
sS'05/13/2016'
p5
I0
sS'06/18/2016'
p6
I0
sS'03/28/2016'
p7
I0
sS'04/26/2016'
p8
I0
sS'04/07/2016'
p9
I0
sS'06/19/2016'
p10
I0
sS'05/25/2016'
p11
I1
sS'06/21/2016'
p12
I1
sS'05/30/2016'
p13
I0
sS'05/27/2016'
p14
I1
sS'06/01/2016'
p15
I1
sS'05/24/2016'
p16
I1
sS'05/08/2016'
p17
I0
sS'06/14/2016'
p18
I1
sS'06/22/2016'
p19
I1
sS'04/30/2016'
p20
I0
sS'05/21/2016'
p21
I0
sS'04/11/2016'
p22
I1
sS'04/01/2016'
p23
I0
sS'06/17/2016'
p24
I1
sS'05/31/2016'
p25
I1
sS'05/18/2016'
p26
I1
sS'04/27/2016'
p27
I0
sS'03/31/2016'
p28
I0
sS'06/11/2016'
p29
I0
sS'04/28/2016'
p30
I0
sS'04/13/2016'
p31
I0
sS'06/13/2016'
p32
I1
sS'05/22/2016'
p33
I0
sS'06/02/2016'
p34
I1
sS'06/23/2016'
p35
I1
sS'05/23/2016'
p36
I1
sS'05/15/2016'
p37
I0
sS'05/03/2016'
p38
I0
sS'06/09/2016'
p39
I1
sS'05/01/2016'
p40
I0
sS'05/02/2016'
p41
I0
sS'04/08/2016'
p42
I0
sS'04/04/2016'
p43
I0
sS'04/24/2016'
p44
I0
sS'05/26/2016'
p45
I1
sS'04/22/2016'
p46
I0
sS'04/10/2016'
p47
I0
sS'03/29/2016'
p48
I0
sS'04/20/2016'
p49
I0
sS'06/08/2016'
p50
I1
sS'04/29/2016'
p51
I0
sS'04/16/2016'
p52
I0
sS'05/19/2016'
p53
I1
sS'05/07/2016'
p54
I0
sS'06/25/2016'
p55
I0
sS'06/03/2016'
p56
I1
sS'04/15/2016'
p57
I0
sS'05/04/2016'
p58
I0
sS'06/10/2016'
p59
I1
sS'05/28/2016'
p60
I0
sS'05/05/2016'
p61
I0
sS'06/12/2016'
p62
I0
sS'04/02/2016'
p63
I0
sS'06/20/2016'
p64
I1
sS'04/09/2016'
p65
I0
sS'06/06/2016'
p66
I1
sS'06/04/2016'
p67
I0
sS'04/23/2016'
p68
I0
sS'04/14/2016'
p69
I0
sS'05/20/2016'
p70
I1
sS'04/21/2016'
p71
I0
sS'05/10/2016'
p72
I0
sS'05/12/2016'
p73
I0
sS'06/16/2016'
p74
I1
sS'05/11/2016'
p75
I0
sS'04/03/2016'
p76
I0
sS'04/18/2016'
p77
I0
sS'04/05/2016'
p78
I0
sS'05/29/2016'
p79
I0
sS'04/25/2016'
p80
I0
sS'05/14/2016'
p81
I0
sS'06/26/2016'
p82
I0
sS'04/12/2016'
p83
I0
sS'04/06/2016'
p84
I0
sS'06/24/2016'
p85
I1
sS'05/17/2016'
p86
I0
sS'06/15/2016'
p87
I1
sS'06/07/2016'
p88
I1
sS'05/16/2016'
p89
I0
sS'05/06/2016'
p90
I0
sS'06/05/2016'
p91
I0
s.